Certificate:
    Data:
        Version: 3 (0x2)
        Serial Number: 1 (0x1)
        Signature Algorithm: sha256WithRSAEncryption
        Issuer: C=FR, ST=Radius, L=Somewhere, O=Example Inc./emailAddress=admin@example.org, CN=Example Certificate Authority
        Validity
            Not Before: Aug  6 17:43:41 2024 GMT
            Not After : Oct  5 17:43:41 2024 GMT
        Subject: C=FR, ST=Radius, O=Example Inc., CN=Example Server Certificate/emailAddress=admin@example.org
        Subject Public Key Info:
            Public Key Algorithm: rsaEncryption
                Public-Key: (2048 bit)
                Modulus:
                    00:ae:73:b3:1e:23:b8:2a:0e:23:74:13:73:c8:d5:
                    d0:43:f8:e7:58:66:14:39:f9:e0:b2:e5:1c:99:c4:
                    51:9c:89:8e:4d:f1:3c:d8:d5:b9:c4:25:de:dc:79:
                    82:11:92:9f:69:7a:68:78:3e:26:ac:33:ce:fd:3c:
                    c2:84:6d:bc:78:ab:e2:0b:9a:e9:ad:98:0e:cf:16:
                    f6:2c:d5:19:74:6e:eb:7a:6b:cf:72:0e:03:db:5d:
                    3d:ee:3e:67:e7:26:52:76:b7:ef:9f:f3:3e:e2:9e:
                    3a:82:49:9b:dc:f3:e4:c8:e1:0a:f3:7c:3d:04:4e:
                    77:e4:7a:ea:6b:1e:d4:9c:f4:87:f0:c7:3c:80:ac:
                    17:61:ab:ee:57:62:4e:a5:35:dd:f2:7c:e4:f2:10:
                    cb:e3:b4:c1:72:8c:00:6f:90:c2:e7:f8:b6:26:36:
                    12:53:3c:64:cd:9c:ec:48:23:16:c3:8c:77:bc:3f:
                    46:84:31:29:ab:44:3d:61:21:bf:6b:14:25:31:42:
                    9f:47:9e:75:74:fa:93:5c:03:ea:a8:b0:32:f1:53:
                    43:cb:10:62:12:9d:84:42:d6:1b:b9:20:4f:f4:c8:
                    9c:85:1b:00:40:a7:00:c2:a3:c7:25:5d:11:4c:21:
                    ad:89:89:7a:6c:78:9d:94:de:28:a4:72:bc:57:57:
                    26:33
                Exponent: 65537 (0x10001)
        X509v3 extensions:
            X509v3 Extended Key Usage: 
                TLS Web Server Authentication
            X509v3 CRL Distribution Points: 
                Full Name:
                  URI:http://www.example.com/example_ca.crl
            X509v3 Certificate Policies: 
                Policy: 1.3.6.1.4.1.40808.1.3.2
            X509v3 Subject Key Identifier: 
                47:DE:5B:7F:9E:EE:6C:5C:33:F9:D8:C4:B5:85:84:78:7B:71:73:31
            X509v3 Authority Key Identifier: 
                CC:D1:F3:92:C2:3A:11:A2:90:77:93:BF:4B:19:E0:15:CB:5F:B7:A6
    Signature Algorithm: sha256WithRSAEncryption
    Signature Value:
        cb:92:6a:68:b5:29:e9:36:e2:06:77:4b:78:52:df:3c:47:0d:
        d9:d9:52:e6:80:b3:0e:d4:e0:e3:13:57:ff:d9:52:2c:24:17:
        71:96:e3:74:cb:8c:2c:7b:bf:db:3f:73:b1:e5:9d:2e:0a:e2:
        64:ba:5e:1e:39:15:08:96:8f:6d:ed:cb:22:d5:75:84:b1:65:
        f3:c8:02:b0:03:2d:8f:6a:49:5e:bf:2b:af:ab:ca:5d:a6:07:
        4c:8a:b4:16:c0:dd:1d:48:06:36:d6:68:9a:0a:3e:cd:21:ee:
        f6:4a:be:71:23:87:b8:3a:23:59:92:80:02:7d:9a:42:26:d2:
        68:34:67:aa:df:24:bb:5e:4d:2f:47:f6:b9:5a:65:0e:e8:c0:
        69:4b:cf:94:b1:82:4b:c6:31:68:15:e3:d2:bf:a3:1b:33:d3:
        a6:c2:aa:db:d5:b7:a7:8a:1a:b2:c4:b1:37:86:37:c9:de:16:
        73:c8:ca:e2:66:c9:35:43:16:f9:10:30:0e:c8:e5:dd:1e:71:
        20:41:38:3a:87:45:fc:2f:c8:c8:46:0a:27:1e:26:70:ea:7c:
        72:4b:a5:1d:e8:13:b8:71:22:3d:3a:6d:e7:b1:f5:b0:dd:71:
        86:29:54:7f:f2:e3:c6:18:19:b2:61:af:26:81:c4:e5:e0:90:
        2a:8a:2b:1e
-----BEGIN CERTIFICATE-----
MIIENjCCAx6gAwIBAgIBATANBgkqhkiG9w0BAQsFADCBkzELMAkGA1UEBhMCRlIx
DzANBgNVBAgMBlJhZGl1czESMBAGA1UEBwwJU29tZXdoZXJlMRUwEwYDVQQKDAxF
eGFtcGxlIEluYy4xIDAeBgkqhkiG9w0BCQEWEWFkbWluQGV4YW1wbGUub3JnMSYw
JAYDVQQDDB1FeGFtcGxlIENlcnRpZmljYXRlIEF1dGhvcml0eTAeFw0yNDA4MDYx
NzQzNDFaFw0yNDEwMDUxNzQzNDFaMHwxCzAJBgNVBAYTAkZSMQ8wDQYDVQQIDAZS
YWRpdXMxFTATBgNVBAoMDEV4YW1wbGUgSW5jLjEjMCEGA1UEAwwaRXhhbXBsZSBT
ZXJ2ZXIgQ2VydGlmaWNhdGUxIDAeBgkqhkiG9w0BCQEWEWFkbWluQGV4YW1wbGUu
b3JnMIIBIjANBgkqhkiG9w0BAQEFAAOCAQ8AMIIBCgKCAQEArnOzHiO4Kg4jdBNz
yNXQQ/jnWGYUOfngsuUcmcRRnImOTfE82NW5xCXe3HmCEZKfaXpoeD4mrDPO/TzC
hG28eKviC5rprZgOzxb2LNUZdG7remvPcg4D21097j5n5yZSdrfvn/M+4p46gkmb
3PPkyOEK83w9BE535Hrqax7UnPSH8Mc8gKwXYavuV2JOpTXd8nzk8hDL47TBcowA
b5DC5/i2JjYSUzxkzZzsSCMWw4x3vD9GhDEpq0Q9YSG/axQlMUKfR551dPqTXAPq
qLAy8VNDyxBiEp2EQtYbuSBP9MichRsAQKcAwqPHJV0RTCGtiYl6bHidlN4opHK8
V1cmMwIDAQABo4GqMIGnMBMGA1UdJQQMMAoGCCsGAQUFBwMBMDYGA1UdHwQvMC0w
K6ApoCeGJWh0dHA6Ly93d3cuZXhhbXBsZS5jb20vZXhhbXBsZV9jYS5jcmwwGAYD
VR0gBBEwDzANBgsrBgEEAYK+aAEDAjAdBgNVHQ4EFgQUR95bf57ubFwz+djEtYWE
eHtxczEwHwYDVR0jBBgwFoAUzNHzksI6EaKQd5O/SxngFctft6YwDQYJKoZIhvcN
AQELBQADggEBAMuSami1Kek24gZ3S3hS3zxHDdnZUuaAsw7U4OMTV//ZUiwkF3GW
43TLjCx7v9s/c7HlnS4K4mS6Xh45FQiWj23tyyLVdYSxZfPIArADLY9qSV6/K6+r
yl2mB0yKtBbA3R1IBjbWaJoKPs0h7vZKvnEjh7g6I1mSgAJ9mkIm0mg0Z6rfJLte
TS9H9rlaZQ7owGlLz5SxgkvGMWgV49K/oxsz06bCqtvVt6eKGrLEsTeGN8neFnPI
yuJmyTVDFvkQMA7I5d0ecSBBODqHRfwvyMhGCiceJnDqfHJLpR3oE7hxIj06beex
9bDdcYYpVH/y48YYGbJhryaBxOXgkCqKKx4=
-----END CERTIFICATE-----
